	.syntax unified
	.cpu cortex-m4
	.eabi_attribute 27, 3
	.eabi_attribute 28, 1
	.fpu fpv4-sp-d16
	.eabi_attribute 20, 1
	.eabi_attribute 21, 1
	.eabi_attribute 23, 3
	.eabi_attribute 24, 1
	.eabi_attribute 25, 1
	.eabi_attribute 26, 1
	.eabi_attribute 30, 2
	.eabi_attribute 34, 1
	.eabi_attribute 18, 4
	.thumb
	.file	"nrf24l01.c"
	.text
.Ltext0:
	.cfi_sections	.debug_frame
	.align	2
	.global	setRegNRF24L01
	.thumb
	.thumb_func
	.type	setRegNRF24L01, %function
setRegNRF24L01:
.LFB112:
	.file 1 "nrf24l01.c"
	.loc 1 78 0
	.cfi_startproc
	@ args = 0, pretend = 0, frame = 8
	@ frame_needed = 0, uses_anonymous_args = 0
.LVL0:
	push	{r4, r5, r6, lr}
	.cfi_def_cfa_offset 16
	.cfi_offset 4, -16
	.cfi_offset 5, -12
	.cfi_offset 6, -8
	.cfi_offset 14, -4
	sub	sp, sp, #8
	.cfi_def_cfa_offset 24
	.loc 1 80 0
	and	r3, r0, #31
	.loc 1 81 0
	add	r0, sp, #8
.LVL1:
	orr	r3, r3, #32
	.loc 1 83 0
	ldr	r4, .L3
	.loc 1 81 0
	strb	r3, [r0, #-1]!
	.loc 1 83 0
	ldr	r3, [r4, #20]
	bic	r3, r3, #32768
	.loc 1 78 0
	mov	r5, r2
	.loc 1 83 0
	str	r3, [r4, #20]
	.loc 1 78 0
	mov	r6, r1
	.loc 1 84 0
	movs	r1, #1
.LVL2:
	bl	txSPI1
.LVL3:
	.loc 1 85 0
	mov	r0, r6
	mov	r1, r5
	bl	txSPI1
.LVL4:
	.loc 1 86 0
	ldr	r3, [r4, #20]
	orr	r3, r3, #32768
	str	r3, [r4, #20]
	.loc 1 87 0
	add	sp, sp, #8
	.cfi_def_cfa_offset 16
	@ sp needed
	pop	{r4, r5, r6, pc}
.LVL5:
.L4:
	.align	2
.L3:
	.word	1073872896
	.cfi_endproc
.LFE112:
	.size	setRegNRF24L01, .-setRegNRF24L01
	.align	2
	.global	setRxAddrNRF24L01
	.thumb
	.thumb_func
	.type	setRxAddrNRF24L01, %function
setRxAddrNRF24L01:
.LFB111:
	.loc 1 71 0
	.cfi_startproc
	@ args = 0, pretend = 0, frame = 0
	@ frame_needed = 0, uses_anonymous_args = 0
.LVL6:
	push	{r4, lr}
	.cfi_def_cfa_offset 8
	.cfi_offset 4, -8
	.cfi_offset 14, -4
	.loc 1 72 0
	ldr	r4, .L7
	ldr	r3, [r4, #20]
	.loc 1 71 0
	mov	r2, r0
	.loc 1 72 0
	bic	r3, r3, #2048
	.loc 1 73 0
	mov	r0, r1
.LVL7:
	.loc 1 72 0
	str	r3, [r4, #20]
	.loc 1 73 0
	mov	r1, r2
.LVL8:
	movs	r2, #5
.LVL9:
	bl	setRegNRF24L01
.LVL10:
	.loc 1 74 0
	ldr	r3, [r4, #20]
	orr	r3, r3, #2048
	str	r3, [r4, #20]
	pop	{r4, pc}
.L8:
	.align	2
.L7:
	.word	1073873920
	.cfi_endproc
.LFE111:
	.size	setRxAddrNRF24L01, .-setRxAddrNRF24L01
	.align	2
	.global	conRegNRF24L01
	.thumb
	.thumb_func
	.type	conRegNRF24L01, %function
conRegNRF24L01:
.LFB113:
	.loc 1 90 0
	.cfi_startproc
	@ args = 0, pretend = 0, frame = 8
	@ frame_needed = 0, uses_anonymous_args = 0
.LVL11:
	push	{r4, lr}
	.cfi_def_cfa_offset 8
	.cfi_offset 4, -8
	.cfi_offset 14, -4
	sub	sp, sp, #8
	.cfi_def_cfa_offset 16
	.loc 1 92 0
	and	r3, r0, #31
	.loc 1 93 0
	add	r0, sp, #8
.LVL12:
	orr	r3, r3, #32
	.loc 1 95 0
	ldr	r4, .L11
	.loc 1 93 0
	strb	r3, [r0, #-1]!
	.loc 1 90 0
	strb	r1, [sp, #6]
	.loc 1 95 0
	ldr	r3, [r4, #20]
	bic	r3, r3, #32768
	str	r3, [r4, #20]
	.loc 1 96 0
	movs	r1, #1
.LVL13:
	bl	txSPI1
.LVL14:
	.loc 1 97 0
	add	r0, sp, #6
	movs	r1, #1
	bl	txSPI1
.LVL15:
	.loc 1 98 0
	ldr	r3, [r4, #20]
	orr	r3, r3, #32768
	str	r3, [r4, #20]
	.loc 1 99 0
	add	sp, sp, #8
	.cfi_def_cfa_offset 8
	@ sp needed
	pop	{r4, pc}
.L12:
	.align	2
.L11:
	.word	1073872896
	.cfi_endproc
.LFE113:
	.size	conRegNRF24L01, .-conRegNRF24L01
	.align	2
	.global	setRxModeNRF24L01
	.thumb
	.thumb_func
	.type	setRxModeNRF24L01, %function
setRxModeNRF24L01:
.LFB114:
	.loc 1 102 0
	.cfi_startproc
	@ args = 0, pretend = 0, frame = 0
	@ frame_needed = 0, uses_anonymous_args = 0
	push	{r3, lr}
	.cfi_def_cfa_offset 8
	.cfi_offset 3, -8
	.cfi_offset 14, -4
	.loc 1 103 0
	ldr	r2, .L15
	movs	r3, #0
	.loc 1 105 0
	mov	r0, r3
	movs	r1, #11
	.loc 1 103 0
	strb	r3, [r2]
	.loc 1 105 0
	bl	conRegNRF24L01
.LVL16:
	.loc 1 106 0
	ldr	r2, .L15+4
	ldr	r3, [r2, #20]
	orr	r3, r3, #2048
	str	r3, [r2, #20]
	.loc 1 107 0
	movs	r0, #130
	bl	delay_us
.LVL17:
	.loc 1 108 0
	movs	r0, #7
	movs	r1, #48
	.loc 1 109 0
	pop	{r3, lr}
	.cfi_restore 14
	.cfi_restore 3
	.cfi_def_cfa_offset 0
	.loc 1 108 0
	b	conRegNRF24L01
.LVL18:
.L16:
	.align	2
.L15:
	.word	nrf_mode
	.word	1073873920
	.cfi_endproc
.LFE114:
	.size	setRxModeNRF24L01, .-setRxModeNRF24L01
	.align	2
	.global	flushRxNRF24L01
	.thumb
	.thumb_func
	.type	flushRxNRF24L01, %function
flushRxNRF24L01:
.LFB115:
	.loc 1 112 0
	.cfi_startproc
	@ args = 0, pretend = 0, frame = 0
	@ frame_needed = 0, uses_anonymous_args = 0
	push	{r4, lr}
	.cfi_def_cfa_offset 8
	.cfi_offset 4, -8
	.cfi_offset 14, -4
	.loc 1 113 0
	ldr	r4, .L19
	ldr	r3, [r4, #20]
	bic	r3, r3, #32768
	str	r3, [r4, #20]
	.loc 1 114 0
	movs	r0, #226
	bl	txByteSPI1
.LVL19:
	.loc 1 115 0
	ldr	r3, [r4, #20]
	orr	r3, r3, #32768
	str	r3, [r4, #20]
	pop	{r4, pc}
.L20:
	.align	2
.L19:
	.word	1073872896
	.cfi_endproc
.LFE115:
	.size	flushRxNRF24L01, .-flushRxNRF24L01
	.align	2
	.global	setTxAddrNRF24L01
	.thumb
	.thumb_func
	.type	setTxAddrNRF24L01, %function
setTxAddrNRF24L01:
.LFB116:
	.loc 1 119 0
	.cfi_startproc
	@ args = 0, pretend = 0, frame = 0
	@ frame_needed = 0, uses_anonymous_args = 0
.LVL20:
	push	{r4, lr}
	.cfi_def_cfa_offset 8
	.cfi_offset 4, -8
	.cfi_offset 14, -4
	.loc 1 120 0
	mov	r1, r0
	.loc 1 119 0
	mov	r4, r0
	.loc 1 120 0
	movs	r2, #5
	movs	r0, #10
.LVL21:
	bl	setRegNRF24L01
.LVL22:
	.loc 1 121 0
	mov	r1, r4
	movs	r0, #16
	movs	r2, #5
	.loc 1 122 0
	pop	{r4, lr}
	.cfi_restore 14
	.cfi_restore 4
	.cfi_def_cfa_offset 0
.LVL23:
	.loc 1 121 0
	b	setRegNRF24L01
.LVL24:
	.cfi_endproc
.LFE116:
	.size	setTxAddrNRF24L01, .-setTxAddrNRF24L01
	.align	2
	.global	getRegNRF24L01
	.thumb
	.thumb_func
	.type	getRegNRF24L01, %function
getRegNRF24L01:
.LFB119:
	.loc 1 192 0
	.cfi_startproc
	@ args = 0, pretend = 0, frame = 16
	@ frame_needed = 0, uses_anonymous_args = 0
.LVL25:
	push	{r4, lr}
	.cfi_def_cfa_offset 8
	.cfi_offset 4, -8
	.cfi_offset 14, -4
	sub	sp, sp, #16
	.cfi_def_cfa_offset 24
	.loc 1 194 0
	add	r2, sp, #16
	and	r0, r0, #31
.LVL26:
	strb	r0, [r2, #-9]!
	.loc 1 196 0
	ldr	r4, .L25
	ldr	r3, [r4, #20]
	bic	r3, r3, #32768
	.loc 1 197 0
	mov	r0, r2
	.loc 1 196 0
	str	r3, [r4, #20]
	.loc 1 197 0
	movs	r1, #1
	bl	txSPI1
.LVL27:
	.loc 1 198 0
	add	r0, sp, #15
	movs	r1, #1
	bl	rxSPI1
.LVL28:
	.loc 1 199 0
	ldr	r3, [r4, #20]
	orr	r3, r3, #32768
	str	r3, [r4, #20]
	.loc 1 201 0
	ldrb	r0, [sp, #15]	@ zero_extendqisi2
	add	sp, sp, #16
	.cfi_def_cfa_offset 8
	@ sp needed
	pop	{r4, pc}
.L26:
	.align	2
.L25:
	.word	1073872896
	.cfi_endproc
.LFE119:
	.size	getRegNRF24L01, .-getRegNRF24L01
	.align	2
	.global	initNRF24L01
	.thumb
	.thumb_func
	.type	initNRF24L01, %function
initNRF24L01:
.LFB110:
	.loc 1 12 0
	.cfi_startproc
	@ args = 0, pretend = 0, frame = 0
	@ frame_needed = 0, uses_anonymous_args = 0
.LVL29:
	push	{r4, lr}
	.cfi_def_cfa_offset 8
	.cfi_offset 4, -8
	.cfi_offset 14, -4
	.loc 1 22 0
	ldr	r3, .L34
	.loc 1 25 0
	ldr	r4, .L34+4
	.loc 1 22 0
	strb	r0, [r3]
	.loc 1 23 0
	ldrb	r3, [r3]	@ zero_extendqisi2
	cmp	r3, #0
	bne	.L28
	.loc 1 25 0
	ldr	r3, .L34+8
	str	r3, [r4]
.L29:
	.loc 1 33 0
	movs	r0, #16
.LVL30:
	bl	initSPI1
.LVL31:
	.loc 1 36 0
	ldr	r3, .L34+12
	.loc 1 42 0
	ldr	r1, .L34+16
	.loc 1 36 0
	ldr	r2, [r3]
	bic	r2, r2, #12582912
	str	r2, [r3]
	.loc 1 37 0
	ldr	r2, [r3]
	orr	r2, r2, #4194304
	str	r2, [r3]
	.loc 1 38 0
	ldr	r2, [r3, #4]
	bic	r2, r2, #12582912
	str	r2, [r3, #4]
	.loc 1 39 0
	ldr	r2, [r3, #8]
	orr	r2, r2, #8388608
	str	r2, [r3, #8]
	.loc 1 41 0
	ldr	r2, [r3, #20]
	bic	r2, r2, #2048
	str	r2, [r3, #20]
	.loc 1 42 0
	ldr	r3, [r1, #20]
	orr	r3, r3, #32768
	str	r3, [r1, #20]
	.loc 1 43 0
	movs	r0, #100
	bl	delay_ms
.LVL32:
	.loc 1 45 0
	ldr	r0, [r4]
	movs	r1, #11
	bl	setRxAddrNRF24L01
.LVL33:
	.loc 1 47 0
	movs	r0, #5
	movs	r1, #1
	bl	conRegNRF24L01
.LVL34:
	.loc 1 49 0
	movs	r0, #17
	movs	r1, #32
	bl	conRegNRF24L01
.LVL35:
	.loc 1 50 0
	movs	r0, #18
	movs	r1, #32
	bl	conRegNRF24L01
.LVL36:
	.loc 1 54 0
	bl	setRxModeNRF24L01
.LVL37:
	.loc 1 55 0
	bl	flushRxNRF24L01
.LVL38:
.LBB10:
	.loc 1 59 0
	ldr	r0, .L34+20
	bl	printUSART2
.LVL39:
	movs	r4, #0
.LVL40:
.L30:
	.loc 1 61 0 discriminator 3
	uxtb	r0, r4
	bl	getRegNRF24L01
.LVL41:
	mov	r1, r4
	mov	r2, r0
	adds	r4, r4, #1
.LVL42:
	ldr	r0, .L34+24
	bl	printUSART2
.LVL43:
	.loc 1 60 0 discriminator 3
	cmp	r4, #30
	bne	.L30
	.loc 1 63 0
	movw	r0, #3000
.LBE10:
	.loc 1 65 0
	pop	{r4, lr}
	.cfi_remember_state
	.cfi_restore 14
	.cfi_restore 4
	.cfi_def_cfa_offset 0
.LBB11:
	.loc 1 63 0
	b	delay_ms
.LVL44:
.L28:
	.cfi_restore_state
.LBE11:
	.loc 1 29 0
	ldr	r3, .L34+28
	str	r3, [r4]
	b	.L29
.L35:
	.align	2
.L34:
	.word	g_nrf24l01_node_type
	.word	g_node_addr
	.word	.LANCHOR0
	.word	1073873920
	.word	1073872896
	.word	.LC0
	.word	.LC1
	.word	.LANCHOR0+8
	.cfi_endproc
.LFE110:
	.size	initNRF24L01, .-initNRF24L01
	.align	2
	.global	txOverNRF24L01
	.thumb
	.thumb_func
	.type	txOverNRF24L01, %function
txOverNRF24L01:
.LFB117:
	.loc 1 125 0
	.cfi_startproc
	@ args = 0, pretend = 0, frame = 0
	@ frame_needed = 0, uses_anonymous_args = 0
	push	{r4, lr}
	.cfi_def_cfa_offset 8
	.cfi_offset 4, -8
	.cfi_offset 14, -4
	.loc 1 127 0
	ldr	r3, .L43
	ldrb	r4, [r3]	@ zero_extendqisi2
	uxtb	r4, r4
	cmp	r4, #1
	beq	.L41
	.loc 1 142 0
	movs	r0, #0
	pop	{r4, pc}
.L41:
.LBB14:
.LBB15:
	.loc 1 129 0
	movs	r0, #7
	bl	getRegNRF24L01
.LVL45:
	.loc 1 130 0
	tst	r0, #48
	bne	.L42
	.loc 1 137 0
	mov	r0, r4
.LVL46:
.LBE15:
.LBE14:
	.loc 1 146 0
	pop	{r4, pc}
.LVL47:
.L42:
.LBB17:
.LBB16:
	.loc 1 132 0
	bl	setRxModeNRF24L01
.LVL48:
	.loc 1 133 0
	movs	r0, #0
	pop	{r4, pc}
.L44:
	.align	2
.L43:
	.word	nrf_mode
.LBE16:
.LBE17:
	.cfi_endproc
.LFE117:
	.size	txOverNRF24L01, .-txOverNRF24L01
	.align	2
	.global	onNRF24L01
	.thumb
	.thumb_func
	.type	onNRF24L01, %function
onNRF24L01:
.LFB118:
	.loc 1 177 0
	.cfi_startproc
	@ args = 0, pretend = 0, frame = 8
	@ frame_needed = 0, uses_anonymous_args = 0
	push	{lr}
	.cfi_def_cfa_offset 4
	.cfi_offset 14, -4
	.loc 1 178 0
	movs	r0, #0
	.loc 1 177 0
	sub	sp, sp, #12
	.cfi_def_cfa_offset 16
	.loc 1 178 0
	bl	getRegNRF24L01
.LVL49:
	.loc 1 179 0
	add	r1, sp, #8
	orr	r0, r0, #2
	strb	r0, [r1, #-1]!
	.loc 1 180 0
	movs	r2, #1
	movs	r0, #0
	bl	setRegNRF24L01
.LVL50:
	.loc 1 181 0
	movs	r0, #130
	bl	delay_us
.LVL51:
	.loc 1 182 0
	add	sp, sp, #12
	.cfi_def_cfa_offset 4
	@ sp needed
	ldr	pc, [sp], #4
	.cfi_endproc
.LFE118:
	.size	onNRF24L01, .-onNRF24L01
	.align	2
	.global	flushTxNRF24L01
	.thumb
	.thumb_func
	.type	flushTxNRF24L01, %function
flushTxNRF24L01:
.LFB120:
	.loc 1 204 0
	.cfi_startproc
	@ args = 0, pretend = 0, frame = 0
	@ frame_needed = 0, uses_anonymous_args = 0
	push	{r4, lr}
	.cfi_def_cfa_offset 8
	.cfi_offset 4, -8
	.cfi_offset 14, -4
	.loc 1 205 0
	ldr	r4, .L49
	ldr	r3, [r4, #20]
	bic	r3, r3, #32768
	str	r3, [r4, #20]
	.loc 1 206 0
	movs	r0, #225
	bl	txByteSPI1
.LVL52:
	.loc 1 207 0
	ldr	r3, [r4, #20]
	orr	r3, r3, #32768
	str	r3, [r4, #20]
	pop	{r4, pc}
.L50:
	.align	2
.L49:
	.word	1073872896
	.cfi_endproc
.LFE120:
	.size	flushTxNRF24L01, .-flushTxNRF24L01
	.align	2
	.global	setTxModeNRF24L01
	.thumb
	.thumb_func
	.type	setTxModeNRF24L01, %function
setTxModeNRF24L01:
.LFB121:
	.loc 1 211 0
	.cfi_startproc
	@ args = 0, pretend = 0, frame = 0
	@ frame_needed = 0, uses_anonymous_args = 0
	@ link register save eliminated.
	.loc 1 212 0
	ldr	r3, .L52
	movs	r2, #1
	.loc 1 213 0
	movs	r0, #0
	movs	r1, #10
	.loc 1 212 0
	strb	r2, [r3]
	.loc 1 213 0
	b	conRegNRF24L01
.LVL53:
.L53:
	.align	2
.L52:
	.word	nrf_mode
	.cfi_endproc
.LFE121:
	.size	setTxModeNRF24L01, .-setTxModeNRF24L01
	.align	2
	.global	rxDataNRF24L01
	.thumb
	.thumb_func
	.type	rxDataNRF24L01, %function
rxDataNRF24L01:
.LFB122:
	.loc 1 236 0
	.cfi_startproc
	@ args = 0, pretend = 0, frame = 8
	@ frame_needed = 0, uses_anonymous_args = 0
.LVL54:
	push	{r4, r5, lr}
	.cfi_def_cfa_offset 12
	.cfi_offset 4, -12
	.cfi_offset 5, -8
	.cfi_offset 14, -4
	.loc 1 239 0
	ldr	r4, .L56
	.loc 1 236 0
	sub	sp, sp, #12
	.cfi_def_cfa_offset 24
	.loc 1 239 0
	ldr	r2, [r4, #20]
	.loc 1 240 0
	add	r3, sp, #8
	.loc 1 239 0
	bic	r2, r2, #32768
	.loc 1 240 0
	movs	r1, #97
	.loc 1 239 0
	str	r2, [r4, #20]
	.loc 1 240 0
	strb	r1, [r3, #-1]!
	.loc 1 236 0
	mov	r5, r0
	.loc 1 241 0
	movs	r1, #1
	mov	r0, r3
.LVL55:
	bl	txSPI1
.LVL56:
	.loc 1 242 0
	mov	r0, r5
	movs	r1, #32
	bl	rxSPI1
.LVL57:
	.loc 1 243 0
	ldr	r3, [r4, #20]
	orr	r3, r3, #32768
	str	r3, [r4, #20]
	.loc 1 245 0
	movs	r0, #7
	movs	r1, #64
	bl	conRegNRF24L01
.LVL58:
	.loc 1 247 0
	add	sp, sp, #12
	.cfi_def_cfa_offset 12
	@ sp needed
	pop	{r4, r5, pc}
.LVL59:
.L57:
	.align	2
.L56:
	.word	1073872896
	.cfi_endproc
.LFE122:
	.size	rxDataNRF24L01, .-rxDataNRF24L01
	.align	2
	.global	dataReadyNRF24L01
	.thumb
	.thumb_func
	.type	dataReadyNRF24L01, %function
dataReadyNRF24L01:
.LFB123:
	.loc 1 250 0
	.cfi_startproc
	@ args = 0, pretend = 0, frame = 0
	@ frame_needed = 0, uses_anonymous_args = 0
	push	{r3, lr}
	.cfi_def_cfa_offset 8
	.cfi_offset 3, -8
	.cfi_offset 14, -4
	.loc 1 251 0
	movs	r0, #7
	bl	getRegNRF24L01
.LVL60:
	.loc 1 253 0
	lsls	r3, r0, #25
	bpl	.L62
	.loc 1 255 0
	movs	r0, #1
.LVL61:
	.loc 1 271 0
	pop	{r3, pc}
.L62:
	.loc 1 259 0
	movs	r0, #23
.LVL62:
	bl	getRegNRF24L01
.LVL63:
	.loc 1 260 0
	and	r0, r0, #1
.LVL64:
	.loc 1 255 0
	eor	r0, r0, #1
	pop	{r3, pc}
	.cfi_endproc
.LFE123:
	.size	dataReadyNRF24L01, .-dataReadyNRF24L01
	.align	2
	.global	txPacketNRF24L01
	.thumb
	.thumb_func
	.type	txPacketNRF24L01, %function
txPacketNRF24L01:
.LFB125:
	.loc 1 293 0
	.cfi_startproc
	@ args = 0, pretend = 0, frame = 8
	@ frame_needed = 0, uses_anonymous_args = 0
.LVL65:
	push	{r4, r5, r6, r7, r8, lr}
	.cfi_def_cfa_offset 24
	.cfi_offset 4, -24
	.cfi_offset 5, -20
	.cfi_offset 6, -16
	.cfi_offset 7, -12
	.cfi_offset 8, -8
	.cfi_offset 14, -4
	sub	sp, sp, #8
	.cfi_def_cfa_offset 32
	.loc 1 293 0
	mov	r7, r0
	.loc 1 295 0
	bl	getSYSTIM
.LVL66:
	ldr	r4, .L73
	mov	r5, r0
.LVL67:
	.loc 1 297 0
	b	.L64
.LVL68:
.L68:
	.loc 1 299 0
	bl	getRegNRF24L01
.LVL69:
	.loc 1 300 0
	tst	r0, #48
	.loc 1 306 0
	mov	r1, #1000
	mov	r0, r5
.LVL70:
	.loc 1 300 0
	bne	.L71
.LVL71:
	.loc 1 306 0
	bl	chk4TimeoutSYSTIM
.LVL72:
	cmp	r0, #0
	beq	.L72
.L64:
	.loc 1 297 0
	ldrb	r3, [r4]	@ zero_extendqisi2
	ldr	r6, .L73
	cmp	r3, #1
	.loc 1 299 0
	mov	r0, #7
	.loc 1 297 0
	beq	.L68
.L66:
.LVL73:
.LBB24:
.LBB25:
	.loc 1 313 0
	ldr	r5, .L73+4
.LVL74:
	.loc 1 318 0
	ldr	r6, .L73+8
	.loc 1 313 0
	ldr	r3, [r5, #20]
	bic	r3, r3, #2048
	str	r3, [r5, #20]
.LBB26:
.LBB27:
	.loc 1 212 0
	mov	r8, #1
	.loc 1 213 0
	movs	r0, #0
	movs	r1, #10
	.loc 1 212 0
	strb	r8, [r4]
	.loc 1 213 0
	bl	conRegNRF24L01
.LVL75:
.LBE27:
.LBE26:
	.loc 1 316 0
	bl	flushTxNRF24L01
.LVL76:
	.loc 1 318 0
	ldr	r3, [r6, #20]
	.loc 1 319 0
	add	r0, sp, #8
	movs	r2, #160
	.loc 1 318 0
	bic	r3, r3, #32768
	str	r3, [r6, #20]
	.loc 1 320 0
	mov	r1, r8
	.loc 1 319 0
	strb	r2, [r0, #-1]!
	.loc 1 320 0
	bl	txSPI1
.LVL77:
	.loc 1 321 0
	mov	r0, r7
	movs	r1, #32
	bl	txSPI1
.LVL78:
	.loc 1 322 0
	ldr	r3, [r6, #20]
	orr	r3, r3, #32768
	str	r3, [r6, #20]
	.loc 1 323 0
	ldr	r3, [r5, #20]
	orr	r3, r3, #2048
	str	r3, [r5, #20]
	.loc 1 324 0
	movs	r0, #130
	bl	delay_us
.LVL79:
.LBE25:
.LBE24:
	.loc 1 325 0
	add	sp, sp, #8
	.cfi_remember_state
	.cfi_def_cfa_offset 24
	@ sp needed
	pop	{r4, r5, r6, r7, r8, pc}
.LVL80:
.L71:
	.cfi_restore_state
	.loc 1 302 0
	movs	r3, #0
	strb	r3, [r6]
	.loc 1 303 0
	b	.L66
.LVL81:
.L72:
.LBB28:
	.loc 1 308 0
	ldr	r0, .L73+12
	bl	printUSART2
.LVL82:
.LBE28:
	.loc 1 325 0
	add	sp, sp, #8
	.cfi_def_cfa_offset 24
	@ sp needed
	pop	{r4, r5, r6, r7, r8, pc}
.LVL83:
.L74:
	.align	2
.L73:
	.word	nrf_mode
	.word	1073873920
	.word	1073872896
	.word	.LC2
	.cfi_endproc
.LFE125:
	.size	txPacketNRF24L01, .-txPacketNRF24L01
	.align	2
	.global	txDataNRF24L01
	.thumb
	.thumb_func
	.type	txDataNRF24L01, %function
txDataNRF24L01:
.LFB124:
	.loc 1 274 0
	.cfi_startproc
	@ args = 0, pretend = 0, frame = 0
	@ frame_needed = 0, uses_anonymous_args = 0
.LVL84:
	push	{r4, r5, r6, lr}
	.cfi_def_cfa_offset 16
	.cfi_offset 4, -16
	.cfi_offset 5, -12
	.cfi_offset 6, -8
	.cfi_offset 14, -4
	.loc 1 274 0
	mov	r4, r1
	mov	r5, r0
	.loc 1 276 0
	bl	getSYSTIM
.LVL85:
	mov	r6, r0
.LVL86:
	.loc 1 278 0
	mov	r0, r5
.LVL87:
	bl	setTxAddrNRF24L01
.LVL88:
	.loc 1 279 0
	mov	r0, r4
	bl	txPacketNRF24L01
.LVL89:
	ldr	r5, .L83
.LVL90:
	.loc 1 280 0
	b	.L76
.LVL91:
.L79:
	.loc 1 282 0
	bl	chk4TimeoutSYSTIM
.LVL92:
	cbz	r0, .L80
.LVL93:
.L76:
.LBB33:
.LBB34:
	.loc 1 127 0
	ldrb	r4, [r5]	@ zero_extendqisi2
	uxtb	r4, r4
	cmp	r4, #1
.LBB35:
.LBB36:
	.loc 1 129 0
	mov	r0, #7
.LBE36:
.LBE35:
	.loc 1 127 0
	bne	.L78
.LBB39:
.LBB37:
	.loc 1 129 0
	bl	getRegNRF24L01
.LVL94:
	.loc 1 130 0
	tst	r0, #48
.LBE37:
.LBE39:
.LBE34:
.LBE33:
	.loc 1 282 0
	mov	r1, #100
	mov	r0, r6
.LVL95:
.LBB42:
.LBB41:
.LBB40:
.LBB38:
	.loc 1 130 0
	beq	.L79
.LVL96:
	.loc 1 132 0
	bl	setRxModeNRF24L01
.LVL97:
.L78:
.LBE38:
.LBE40:
.LBE41:
.LBE42:
	.loc 1 275 0
	movs	r0, #0
.LVL98:
	.loc 1 290 0
	pop	{r4, r5, r6, pc}
.LVL99:
.L80:
	.loc 1 284 0
	mov	r0, r4
	pop	{r4, r5, r6, pc}
.LVL100:
.L84:
	.align	2
.L83:
	.word	nrf_mode
	.cfi_endproc
.LFE124:
	.size	txDataNRF24L01, .-txDataNRF24L01
	.comm	nrf_mode,1,1
	.comm	g_node_addr,4,4
	.global	c_nrf_slave_addr
	.global	c_nrf_master_addr
	.comm	g_nrf24l01_node_type,1,1
	.section	.rodata
	.align	2
	.set	.LANCHOR0,. + 0
	.type	c_nrf_slave_addr, %object
	.size	c_nrf_slave_addr, 6
c_nrf_slave_addr:
	.ascii	"SDR00\000"
	.space	2
	.type	c_nrf_master_addr, %object
	.size	c_nrf_master_addr, 6
c_nrf_master_addr:
	.ascii	"MDR01\000"
	.section	.rodata.str1.4,"aMS",%progbits,1
	.align	2
.LC0:
	.ascii	"\012\000"
	.space	2
.LC1:
	.ascii	"REG[%xb]: %xb\012\000"
	.space	1
.LC2:
	.ascii	"TIMEOUT\012\000"
	.text
.Letext0:
	.file 2 "/home/wubuntu/msut/STM32F407/gcc-arm-none-eabi/arm-none-eabi/include/machine/_default_types.h"
	.file 3 "/home/wubuntu/msut/STM32F407/gcc-arm-none-eabi/arm-none-eabi/include/stdint.h"
	.file 4 "../../../../STM32F407/Libraries/CMSIS/ST/STM32F4xx/Include/stm32f4xx.h"
	.file 5 "../../../../STM32F407/Libraries/CMSIS/Include/core_cm4.h"
	.file 6 "spi.h"
	.file 7 "delay.h"